target datalayout = "e-m:e-p270:32:32-p271:32:32-p272:64:64-i64:64-i128:128-f80:128-n8:16:32:64-S128"
target triple = "x86_64-unknown-linux-gnu"

%"class.icu_75::UObject" = type { ptr }
%"class.icu_75::TextTrieMap" = type { ptr, i8, ptr, i32, i32, ptr, i8, ptr }
%"class.icu_75::UnicodeString" = type { %"class.icu_75::Replaceable", %"union.icu_75::UnicodeString::StackBufferOrFields" }
%"class.icu_75::Replaceable" = type { %"class.icu_75::UObject" }
%"union.icu_75::UnicodeString::StackBufferOrFields" = type { %struct.anon.0, [32 x i8] }
%struct.anon.0 = type { i16, i32, i32, ptr }
%"class.icu_75::ZNameSearchHandler" = type { %"class.icu_75::TextTrieMapSearchResultHandler", i32, i32, ptr }
%"class.icu_75::TextTrieMapSearchResultHandler" = type { ptr }
%"class.icu_75::TimeZoneNamesImpl" = type { %"class.icu_75::TimeZoneNames", %"class.icu_75::Locale", ptr, ptr, ptr, i8, i8, %"class.icu_75::TextTrieMap" }
%"class.icu_75::TimeZoneNames" = type { %"class.icu_75::UObject" }
%"class.icu_75::Locale" = type <{ %"class.icu_75::UObject", [12 x i8], [6 x i8], [4 x i8], [2 x i8], i32, [4 x i8], ptr, [157 x i8], [3 x i8], ptr, i8, [7 x i8] }>

; Function Attrs: mustprogress nounwind uwtable
define linkonce_odr noundef i32 @_ZNK6icu_7513UnicodeString14getShortLengthEv(ptr noundef nonnull align 8 dereferenceable(64) %this) #0 comdat align 2 {
entry:
  %this.addr = alloca ptr, align 8
  store ptr %this, ptr %this.addr, align 8
  %this1 = load ptr, ptr %this.addr, align 8
  %fUnion = getelementptr inbounds %"class.icu_75::UnicodeString", ptr %this1, i32 0, i32 1
  %fLengthAndFlags = getelementptr inbounds %struct.anon.0, ptr %fUnion, i32 0, i32 0
  %0 = load i16, ptr %fLengthAndFlags, align 8
  %conv = sext i16 %0 to i32
  %shr = ashr i32 %conv, 5
  ret i32 %shr
}

; Function Attrs: mustprogress nounwind uwtable
define linkonce_odr noundef signext i8 @_ZNK6icu_7513UnicodeString14hasShortLengthEv(ptr noundef nonnull align 8 dereferenceable(64) %this) #0 comdat align 2 {
entry:
  %this.addr = alloca ptr, align 8
  store ptr %this, ptr %this.addr, align 8
  %this1 = load ptr, ptr %this.addr, align 8
  %fUnion = getelementptr inbounds %"class.icu_75::UnicodeString", ptr %this1, i32 0, i32 1
  %fLengthAndFlags = getelementptr inbounds %struct.anon.0, ptr %fUnion, i32 0, i32 0
  %0 = load i16, ptr %fLengthAndFlags, align 8
  %conv = sext i16 %0 to i32
  %cmp = icmp sge i32 %conv, 0
  %conv2 = zext i1 %cmp to i8
  ret i8 %conv2
}

; Function Attrs: mustprogress uwtable
define linkonce_odr noundef i32 @_ZNK6icu_7513UnicodeString6lengthEv(ptr noundef nonnull align 8 dereferenceable(64) %this) #1 comdat align 2 {
entry:
  %this.addr = alloca ptr, align 8
  store ptr %this, ptr %this.addr, align 8
  %this1 = load ptr, ptr %this.addr, align 8
  %call = call noundef signext i8 @_ZNK6icu_7513UnicodeString14hasShortLengthEv(ptr noundef nonnull align 8 dereferenceable(64) %this1)
  %tobool = icmp ne i8 %call, 0
  br i1 %tobool, label %cond.true, label %cond.false

cond.true:                                        ; preds = %entry
  %call2 = call noundef i32 @_ZNK6icu_7513UnicodeString14getShortLengthEv(ptr noundef nonnull align 8 dereferenceable(64) %this1)
  br label %cond.end

cond.false:                                       ; preds = %entry
  %fUnion = getelementptr inbounds %"class.icu_75::UnicodeString", ptr %this1, i32 0, i32 1
  %fLength = getelementptr inbounds %struct.anon.0, ptr %fUnion, i32 0, i32 1
  %0 = load i32, ptr %fLength, align 4
  br label %cond.end

cond.end:                                         ; preds = %cond.false, %cond.true
  %cond = phi i32 [ %call2, %cond.true ], [ %0, %cond.false ]
  ret i32 %cond
}

; Function Attrs: mustprogress nounwind uwtable
define noundef ptr @_ZN6icu_7518ZNameSearchHandler10getMatchesERi(ptr noundef nonnull align 8 dereferenceable(24) %this, ptr noundef nonnull align 4 dereferenceable(4) %maxMatchLen) #0 align 2 {
entry:
  %this.addr = alloca ptr, align 8
  %maxMatchLen.addr = alloca ptr, align 8
  %results = alloca ptr, align 8
  store ptr %this, ptr %this.addr, align 8
  store ptr %maxMatchLen, ptr %maxMatchLen.addr, align 8
  %this1 = load ptr, ptr %this.addr, align 8
  %fResults = getelementptr inbounds %"class.icu_75::ZNameSearchHandler", ptr %this1, i32 0, i32 3
  %0 = load ptr, ptr %fResults, align 8
  store ptr %0, ptr %results, align 8
  %fMaxMatchLen = getelementptr inbounds %"class.icu_75::ZNameSearchHandler", ptr %this1, i32 0, i32 2
  %1 = load i32, ptr %fMaxMatchLen, align 4
  %2 = load ptr, ptr %maxMatchLen.addr, align 8
  store i32 %1, ptr %2, align 4
  %fResults2 = getelementptr inbounds %"class.icu_75::ZNameSearchHandler", ptr %this1, i32 0, i32 3
  store ptr null, ptr %fResults2, align 8
  %fMaxMatchLen3 = getelementptr inbounds %"class.icu_75::ZNameSearchHandler", ptr %this1, i32 0, i32 2
  store i32 0, ptr %fMaxMatchLen3, align 4
  %3 = load ptr, ptr %results, align 8
  ret ptr %3
}

; Function Attrs: mustprogress nounwind uwtable
define internal noundef signext i8 @_ZL9U_FAILURE10UErrorCode(i32 noundef %code) #0 {
entry:
  %code.addr = alloca i32, align 4
  store i32 %code, ptr %code.addr, align 4
  %0 = load i32, ptr %code.addr, align 4
  %cmp = icmp sgt i32 %0, 0
  %conv = zext i1 %cmp to i8
  ret i8 %conv
}

; Function Attrs: mustprogress uwtable
define noundef ptr @_ZNK6icu_7517TimeZoneNamesImpl6doFindERNS_18ZNameSearchHandlerERKNS_13UnicodeStringEiR10UErrorCode(ptr noundef nonnull align 8 dereferenceable(320) %this, ptr noundef nonnull align 8 dereferenceable(24) %handler, ptr noundef nonnull align 8 dereferenceable(64) %text, i32 noundef %start, ptr noundef nonnull align 4 dereferenceable(4) %status) #1 align 2 {
entry:
  %retval = alloca ptr, align 8
  %this.addr = alloca ptr, align 8
  %handler.addr = alloca ptr, align 8
  %text.addr = alloca ptr, align 8
  %start.addr = alloca i32, align 4
  %status.addr = alloca ptr, align 8
  %maxLen = alloca i32, align 4
  %matches = alloca ptr, align 8
  store ptr %this, ptr %this.addr, align 8
  store ptr %handler, ptr %handler.addr, align 8
  store ptr %text, ptr %text.addr, align 8
  store i32 %start, ptr %start.addr, align 4
  store ptr %status, ptr %status.addr, align 8
  %this1 = load ptr, ptr %this.addr, align 8
  %fNamesTrie = getelementptr inbounds %"class.icu_75::TimeZoneNamesImpl", ptr %this1, i32 0, i32 7
  %0 = load ptr, ptr %text.addr, align 8
  %1 = load i32, ptr %start.addr, align 4
  %2 = load ptr, ptr %handler.addr, align 8
  %3 = load ptr, ptr %status.addr, align 8
  call void @_ZNK6icu_7511TextTrieMap6searchERKNS_13UnicodeStringEiPNS_30TextTrieMapSearchResultHandlerER10UErrorCode(ptr noundef nonnull align 8 dereferenceable(56) %fNamesTrie, ptr noundef nonnull align 8 dereferenceable(64) %0, i32 noundef %1, ptr noundef %2, ptr noundef nonnull align 4 dereferenceable(4) %3)
  %4 = load ptr, ptr %status.addr, align 8
  %5 = load i32, ptr %4, align 4
  %call = call noundef signext i8 @_ZL9U_FAILURE10UErrorCode(i32 noundef %5)
  %tobool = icmp ne i8 %call, 0
  br i1 %tobool, label %if.then, label %if.end

if.then:                                          ; preds = %entry
  store ptr null, ptr %retval, align 8
  br label %return

if.end:                                           ; preds = %entry
  store i32 0, ptr %maxLen, align 4
  %6 = load ptr, ptr %handler.addr, align 8
  %call2 = call noundef ptr @_ZN6icu_7518ZNameSearchHandler10getMatchesERi(ptr noundef nonnull align 8 dereferenceable(24) %6, ptr noundef nonnull align 4 dereferenceable(4) %maxLen)
  store ptr %call2, ptr %matches, align 8
  %7 = load ptr, ptr %matches, align 8
  %cmp = icmp ne ptr %7, null
  br i1 %cmp, label %land.lhs.true, label %if.end7

land.lhs.true:                                    ; preds = %if.end
  %8 = load i32, ptr %maxLen, align 4
  %9 = load ptr, ptr %text.addr, align 8
  %call3 = call noundef i32 @_ZNK6icu_7513UnicodeString6lengthEv(ptr noundef nonnull align 8 dereferenceable(64) %9)
  %10 = load i32, ptr %start.addr, align 4
  %sub = sub nsw i32 %call3, %10
  %cmp4 = icmp eq i32 %8, %sub
  br i1 %cmp4, label %if.then6, label %lor.lhs.false

lor.lhs.false:                                    ; preds = %land.lhs.true
  %fNamesTrieFullyLoaded = getelementptr inbounds %"class.icu_75::TimeZoneNamesImpl", ptr %this1, i32 0, i32 5
  %11 = load i8, ptr %fNamesTrieFullyLoaded, align 8
  %tobool5 = icmp ne i8 %11, 0
  br i1 %tobool5, label %if.then6, label %if.end7

if.then6:                                         ; preds = %lor.lhs.false, %land.lhs.true
  %12 = load ptr, ptr %matches, align 8
  store ptr %12, ptr %retval, align 8
  br label %return

if.end7:                                          ; preds = %lor.lhs.false, %if.end
  %13 = load ptr, ptr %matches, align 8
  %isnull = icmp eq ptr %13, null
  br i1 %isnull, label %delete.end, label %delete.notnull

delete.notnull:                                   ; preds = %if.end7
  %vtable = load ptr, ptr %13, align 8
  %vfn = getelementptr inbounds ptr, ptr %vtable, i64 1
  %14 = load ptr, ptr %vfn, align 8
  call void %14(ptr noundef nonnull align 8 dereferenceable(16) %13) #10
  br label %delete.end

delete.end:                                       ; preds = %delete.notnull, %if.end7
  store ptr null, ptr %retval, align 8
  br label %return

return:                                           ; preds = %delete.end, %if.then6, %if.then
  %15 = load ptr, ptr %retval, align 8
  ret ptr %15
}