; Function Attrs: mustprogress uwtable
define noundef ptr @_ZNK6icu_7517TimeZoneNamesImpl6doFindERNS_18ZNameSearchHandlerERKNS_13UnicodeStringEiR10UErrorCode(ptr nocapture noundef nonnull align 8 dereferenceable(320) %this, ptr noundef nonnull align 8 dereferenceable(24) %handler, ptr noundef nonnull align 8 dereferenceable(64) %text, i32 noundef %start, ptr noundef nonnull align 4 dereferenceable(4) %status) local_unnamed_addr #1 align 2 {
entry:
  %fNamesTrie = getelementptr inbounds i8, ptr %this, i64 264
  tail call void @_ZNK6icu_7511TextTrieMap6searchERKNS_13UnicodeStringEiPNS_30TextTrieMapSearchResultHandlerER10UErrorCode(ptr noundef nonnull align 8 dereferenceable(56) %fNamesTrie, ptr noundef nonnull align 8 dereferenceable(64) %text, i32 noundef %start, ptr noundef nonnull %handler, ptr noundef nonnull align 4 dereferenceable(4) %status)
  %0 = load i32, ptr %status, align 4
  %cmp.i = icmp slt i32 %0, 1
  br i1 %cmp.i, label %if.end, label %return

if.end:                                           ; preds = %entry
  %fResults.i = getelementptr inbounds i8, ptr %handler, i64 16
  %1 = load ptr, ptr %fResults.i, align 8
  %fMaxMatchLen.i = getelementptr inbounds i8, ptr %handler, i64 12
  %2 = load i32, ptr %fMaxMatchLen.i, align 4
  store ptr null, ptr %fResults.i, align 8
  store i32 0, ptr %fMaxMatchLen.i, align 4
  %cond = icmp eq ptr %1, null
  br i1 %cond, label %return, label %land.lhs.true

land.lhs.true:                                    ; preds = %if.end
  %fUnion.i.i = getelementptr inbounds i8, ptr %text, i64 8
  %3 = load i16, ptr %fUnion.i.i, align 8
  %cmp.i.i = icmp slt i16 %3, 0
  %4 = ashr i16 %3, 5
  %shr.i.i = sext i16 %4 to i32
  %fLength.i = getelementptr inbounds i8, ptr %text, i64 12
  %5 = load i32, ptr %fLength.i, align 4
  %cond.i = select i1 %cmp.i.i, i32 %5, i32 %shr.i.i
  %sub = sub nsw i32 %cond.i, %start
  %cmp4 = icmp ne i32 %2, %sub
  %fNamesTrieFullyLoaded = getelementptr inbounds i8, ptr %this, i64 256
  %6 = load i8, ptr %fNamesTrieFullyLoaded, align 8
  %tobool5.not = icmp eq i8 %6, 0
  %or.cond = select i1 %cmp4, i1 %tobool5.not, i1 false
  br i1 %or.cond, label %delete.notnull, label %return

delete.notnull:                                   ; preds = %land.lhs.true
  %vtable = load ptr, ptr %1, align 8
  %vfn = getelementptr inbounds i8, ptr %vtable, i64 8
  %7 = load ptr, ptr %vfn, align 8
  tail call void %7(ptr noundef nonnull align 8 dereferenceable(16) %1) #20
  br label %return

return:                                           ; preds = %if.end, %delete.notnull, %land.lhs.true, %entry
  %retval.0 = phi ptr [ null, %entry ], [ %1, %land.lhs.true ], [ null, %if.end ], [ null, %delete.notnull ]
  ret ptr %retval.0
}